target datalayout = "e-m:e-p270:32:32-p271:32:32-p272:64:64-i64:64-i128:128-f80:128-n8:16:32:64-S128"
target triple = "x86_64-pc-linux-gnu"

%"class.clang::SourceLocation" = type { i32 }
%"class.llvm::SmallBitVector" = type { i64 }
%"class.clang::SemaBase::SemaDiagnosticBuilder" = type { ptr, %"class.clang::SourceLocation", i32, ptr, i8, [7 x i8], %"class.std::optional.1110", %"class.std::optional.1090" }
%"class.std::optional.1110" = type { %"struct.std::_Optional_base.1111" }
%"struct.std::_Optional_base.1111" = type { %"struct.std::_Optional_payload.1113" }
%"struct.std::_Optional_payload.1113" = type { %"struct.std::_Optional_payload.base.1117", [7 x i8] }
%"struct.std::_Optional_payload.base.1117" = type { %"struct.std::_Optional_payload_base.base.1116" }
%"struct.std::_Optional_payload_base.base.1116" = type { %"union.std::_Optional_payload_base<clang::SemaBase::ImmediateDiagBuilder>::_Storage", i8 }
%"union.std::_Optional_payload_base<clang::SemaBase::ImmediateDiagBuilder>::_Storage" = type { %"class.clang::SemaBase::ImmediateDiagBuilder" }
%"class.clang::SemaBase::ImmediateDiagBuilder" = type <{ %"class.clang::DiagnosticBuilder.base", [6 x i8], ptr, i32, [4 x i8] }>
%"class.clang::DiagnosticBuilder.base" = type <{ %"class.clang::StreamingDiagnostic", ptr, i8, i8 }>
%"class.clang::StreamingDiagnostic" = type { ptr, ptr }
%"class.std::optional.1090" = type { %"struct.std::_Optional_base.1091" }
%"struct.std::_Optional_base.1091" = type { %"struct.std::_Optional_payload.1093" }
%"struct.std::_Optional_payload.1093" = type { %"struct.std::_Optional_payload_base.base.1095", [3 x i8] }
%"struct.std::_Optional_payload_base.base.1095" = type <{ %"union.std::_Optional_payload_base<unsigned int>::_Storage", i8 }>
%"union.std::_Optional_payload_base<unsigned int>::_Storage" = type { i32 }
%"class.clang::SourceRange" = type { %"class.clang::SourceLocation", %"class.clang::SourceLocation" }
%"class.clang::analyze_format_string::FormatStringHandler" = type { ptr }
%"class.llvm::ArrayRef.1232" = type { ptr, i64 }
%"class.clang::CharSourceRange" = type <{ %"class.clang::SourceRange", i8, [3 x i8] }>
%"class.llvm::ArrayRef.1774" = type { ptr, i64 }
%"class.(anonymous namespace)::CheckFormatHandler" = type { %"class.clang::analyze_format_string::FormatStringHandler", ptr, ptr, ptr, i32, i32, i32, ptr, i32, %"class.llvm::ArrayRef.1232", i32, %"class.llvm::SmallBitVector", i8, i8, i8, i32, ptr, ptr }

; Function Attrs: mustprogress nounwind uwtable
define linkonce_odr hidden i32 @_ZNK5clang11SourceRange8getBeginEv(ptr noundef nonnull align 4 dereferenceable(8) %0) #0 comdat align 2 {
  %2 = alloca %"class.clang::SourceLocation", align 4
  %3 = alloca ptr, align 8
  store ptr %0, ptr %3, align 8
  %4 = load ptr, ptr %3, align 8
  %5 = getelementptr inbounds nuw %"class.clang::SourceRange", ptr %4, i32 0, i32 0
  call void @llvm.memcpy.p0.p0.i64(ptr align 4 %2, ptr align 4 %5, i64 4, i1 false)
  %6 = getelementptr inbounds nuw %"class.clang::SourceLocation", ptr %2, i32 0, i32 0
  %7 = load i32, ptr %6, align 4
  ret i32 %7
}

; Function Attrs: mustprogress nounwind uwtable
define linkonce_odr hidden i32 @_ZNK5clang15CharSourceRange8getBeginEv(ptr noundef nonnull align 4 dereferenceable(9) %0) #0 comdat align 2 {
  %2 = alloca %"class.clang::SourceLocation", align 4
  %3 = alloca ptr, align 8
  store ptr %0, ptr %3, align 8
  %4 = load ptr, ptr %3, align 8
  %5 = getelementptr inbounds nuw %"class.clang::CharSourceRange", ptr %4, i32 0, i32 0
  %6 = call i32 @_ZNK5clang11SourceRange8getBeginEv(ptr noundef nonnull align 4 dereferenceable(8) %5)
  %7 = getelementptr inbounds nuw %"class.clang::SourceLocation", ptr %2, i32 0, i32 0
  store i32 %6, ptr %7, align 4
  %8 = getelementptr inbounds nuw %"class.clang::SourceLocation", ptr %2, i32 0, i32 0
  %9 = load i32, ptr %8, align 4
  ret i32 %9
}

; Function Attrs: mustprogress nounwind uwtable
define internal void @_ZN12_GLOBAL__N_118CheckFormatHandler20EmitFormatDiagnosticIN5clang15CharSourceRangeEEEvRNS2_4SemaEbPKNS2_4ExprERKNS2_17PartialDiagnosticENS2_14SourceLocationEbT_N4llvm8ArrayRefINS2_9FixItHintEEE(ptr noundef nonnull align 8 dereferenceable(17560) %0, i1 noundef zeroext %1, ptr noundef %2, ptr noundef nonnull align 8 dereferenceable(20) %3, i32 %4, i1 noundef zeroext %5, ptr noundef byval(%"class.clang::CharSourceRange") align 8 %6, ptr noundef byval(%"class.llvm::ArrayRef.1774") align 8 %7) #0 align 2 {
  %9 = alloca %"class.clang::SourceLocation", align 4
  %10 = alloca ptr, align 8
  %11 = alloca i8, align 1
  %12 = alloca ptr, align 8
  %13 = alloca ptr, align 8
  %14 = alloca i8, align 1
  %15 = alloca ptr, align 8
  %16 = alloca %"class.clang::SemaBase::SemaDiagnosticBuilder", align 8
  %17 = alloca %"class.clang::SourceLocation", align 4
  %18 = alloca %"class.clang::SemaBase::SemaDiagnosticBuilder", align 8
  %19 = alloca %"class.clang::SourceLocation", align 4
  %20 = alloca %"class.clang::SourceRange", align 4
  %21 = alloca ptr, align 8
  %22 = alloca %"class.clang::SemaBase::SemaDiagnosticBuilder", align 8
  %23 = alloca %"class.clang::SourceLocation", align 4
  %24 = getelementptr inbounds nuw %"class.clang::SourceLocation", ptr %9, i32 0, i32 0
  store i32 %4, ptr %24, align 4
  store ptr %0, ptr %10, align 8
  %25 = zext i1 %1 to i8
  store i8 %25, ptr %11, align 1
  store ptr %2, ptr %12, align 8
  store ptr %3, ptr %13, align 8
  %26 = zext i1 %5 to i8
  store i8 %26, ptr %14, align 1
  %27 = load i8, ptr %11, align 1
  %28 = trunc i8 %27 to i1
  br i1 %28, label %29, label %39

29:                                               ; preds = %8
  %30 = load ptr, ptr %10, align 8
  %31 = getelementptr inbounds i8, ptr %30, i64 8
  call void @llvm.memcpy.p0.p0.i64(ptr align 4 %17, ptr align 4 %9, i64 4, i1 false)
  %32 = load ptr, ptr %13, align 8
  %33 = getelementptr inbounds nuw %"class.clang::SourceLocation", ptr %17, i32 0, i32 0
  %34 = load i32, ptr %33, align 4
  call void @_ZN5clang8SemaBase4DiagENS_14SourceLocationERKNS_17PartialDiagnosticEb(ptr dead_on_unwind writable sret(%"class.clang::SemaBase::SemaDiagnosticBuilder") align 8 %16, ptr noundef nonnull align 8 dereferenceable(8) %31, i32 %34, ptr noundef nonnull align 8 dereferenceable(20) %32, i1 noundef zeroext false)
  store ptr %16, ptr %15, align 8
  %35 = load ptr, ptr %15, align 8
  %36 = call noundef nonnull align 8 dereferenceable(96) ptr @_ZN5clanglsINS_15CharSourceRangeEEERKNS_8SemaBase21SemaDiagnosticBuilderES5_RKT_(ptr noundef nonnull align 8 dereferenceable(96) %35, ptr noundef nonnull align 4 dereferenceable(9) %6)
  %37 = load ptr, ptr %15, align 8
  %38 = call noundef nonnull align 8 dereferenceable(96) ptr @_ZN5clanglsIN4llvm8ArrayRefINS_9FixItHintEEEEERKNS_8SemaBase21SemaDiagnosticBuilderES8_RKT_(ptr noundef nonnull align 8 dereferenceable(96) %37, ptr noundef nonnull align 8 dereferenceable(16) %7)
  call void @_ZN5clang8SemaBase21SemaDiagnosticBuilderD1Ev(ptr noundef nonnull align 8 dereferenceable(96) %16) #15
  br label %71

39:                                               ; preds = %8
  %40 = load ptr, ptr %10, align 8
  %41 = getelementptr inbounds i8, ptr %40, i64 8
  %42 = load i8, ptr %14, align 1
  %43 = trunc i8 %42 to i1
  br i1 %43, label %44, label %48

44:                                               ; preds = %39
  %45 = load ptr, ptr %12, align 8
  %46 = call i32 @_ZNK5clang4Expr10getExprLocEv(ptr noundef nonnull align 8 dereferenceable(16) %45) #14
  %47 = getelementptr inbounds nuw %"class.clang::SourceLocation", ptr %19, i32 0, i32 0
  store i32 %46, ptr %47, align 4
  br label %49

48:                                               ; preds = %39
  call void @llvm.memcpy.p0.p0.i64(ptr align 4 %19, ptr align 4 %9, i64 4, i1 false)
  br label %49

49:                                               ; preds = %48, %44
  %50 = load ptr, ptr %13, align 8
  %51 = getelementptr inbounds nuw %"class.clang::SourceLocation", ptr %19, i32 0, i32 0
  %52 = load i32, ptr %51, align 4
  call void @_ZN5clang8SemaBase4DiagENS_14SourceLocationERKNS_17PartialDiagnosticEb(ptr dead_on_unwind writable sret(%"class.clang::SemaBase::SemaDiagnosticBuilder") align 8 %18, ptr noundef nonnull align 8 dereferenceable(8) %41, i32 %52, ptr noundef nonnull align 8 dereferenceable(20) %50, i1 noundef zeroext false)
  %53 = load ptr, ptr %12, align 8
  %54 = call i64 @_ZNK5clang4Stmt14getSourceRangeEv(ptr noundef nonnull align 8 dereferenceable(8) %53) #14
  store i64 %54, ptr %20, align 4
  %55 = call noundef nonnull align 8 dereferenceable(96) ptr @_ZNK5clang8SemaBase21SemaDiagnosticBuilderlsINS_11SourceRangeEvEERKS1_OT_(ptr noundef nonnull align 8 dereferenceable(96) %18, ptr noundef nonnull align 4 dereferenceable(8) %20)
  call void @_ZN5clang8SemaBase21SemaDiagnosticBuilderD1Ev(ptr noundef nonnull align 8 dereferenceable(96) %18) #15
  %56 = load ptr, ptr %10, align 8
  %57 = getelementptr inbounds i8, ptr %56, i64 8
  %58 = load i8, ptr %14, align 1
  %59 = trunc i8 %58 to i1
  br i1 %59, label %60, label %61

60:                                               ; preds = %49
  call void @llvm.memcpy.p0.p0.i64(ptr align 4 %23, ptr align 4 %9, i64 4, i1 false)
  br label %64

61:                                               ; preds = %49
  %62 = call i32 @_ZNK5clang15CharSourceRange8getBeginEv(ptr noundef nonnull align 4 dereferenceable(9) %6)
  %63 = getelementptr inbounds nuw %"class.clang::SourceLocation", ptr %23, i32 0, i32 0
  store i32 %62, ptr %63, align 4
  br label %64

64:                                               ; preds = %61, %60
  %65 = getelementptr inbounds nuw %"class.clang::SourceLocation", ptr %23, i32 0, i32 0
  %66 = load i32, ptr %65, align 4
  call void @_ZN5clang8SemaBase4DiagENS_14SourceLocationEjb(ptr dead_on_unwind writable sret(%"class.clang::SemaBase::SemaDiagnosticBuilder") align 8 %22, ptr noundef nonnull align 8 dereferenceable(8) %57, i32 %66, i32 noundef 5604, i1 noundef zeroext false)
  store ptr %22, ptr %21, align 8
  %67 = load ptr, ptr %21, align 8
  %68 = call noundef nonnull align 8 dereferenceable(96) ptr @_ZN5clanglsINS_15CharSourceRangeEEERKNS_8SemaBase21SemaDiagnosticBuilderES5_RKT_(ptr noundef nonnull align 8 dereferenceable(96) %67, ptr noundef nonnull align 4 dereferenceable(9) %6)
  %69 = load ptr, ptr %21, align 8
  %70 = call noundef nonnull align 8 dereferenceable(96) ptr @_ZN5clanglsIN4llvm8ArrayRefINS_9FixItHintEEEEERKNS_8SemaBase21SemaDiagnosticBuilderES8_RKT_(ptr noundef nonnull align 8 dereferenceable(96) %69, ptr noundef nonnull align 8 dereferenceable(16) %7)
  call void @_ZN5clang8SemaBase21SemaDiagnosticBuilderD1Ev(ptr noundef nonnull align 8 dereferenceable(96) %22) #15
  br label %71

71:                                               ; preds = %64, %29
  ret void
}

; Function Attrs: mustprogress nounwind uwtable
define linkonce_odr hidden noundef nonnull align 8 dereferenceable(8) ptr @_ZNK4llvm8ArrayRefIPKN5clang4ExprEEixEm(ptr noundef nonnull align 8 dereferenceable(16) %0, i64 noundef %1) #0 comdat align 2 {
  %3 = alloca ptr, align 8
  %4 = alloca i64, align 8
  store ptr %0, ptr %3, align 8
  store i64 %1, ptr %4, align 8
  %5 = load ptr, ptr %3, align 8
  %6 = getelementptr inbounds nuw %"class.llvm::ArrayRef.1232", ptr %5, i32 0, i32 0
  %7 = load ptr, ptr %6, align 8
  %8 = load i64, ptr %4, align 8
  %9 = getelementptr inbounds ptr, ptr %7, i64 %8
  ret ptr %9
}

; Function Attrs: mustprogress nounwind uwtable
define internal void @_ZN12_GLOBAL__N_118CheckFormatHandler20EmitFormatDiagnosticIN5clang15CharSourceRangeEEEvNS2_17PartialDiagnosticENS2_14SourceLocationEbT_N4llvm8ArrayRefINS2_9FixItHintEEE(ptr noundef nonnull align 8 dereferenceable(120) %0, ptr noundef %1, i32 %2, i1 noundef zeroext %3, i64 %4, i8 %5, ptr noundef byval(%"class.llvm::ArrayRef.1774") align 8 %6) #0 align 2 {
  %8 = alloca %"class.clang::SourceLocation", align 4
  %9 = alloca %"class.clang::CharSourceRange", align 4
  %10 = alloca { i64, i8 }, align 4
  %11 = alloca ptr, align 8
  %12 = alloca ptr, align 8
  %13 = alloca i8, align 1
  %14 = alloca %"class.clang::SourceLocation", align 4
  %15 = alloca %"class.clang::CharSourceRange", align 8
  %16 = alloca %"class.llvm::ArrayRef.1774", align 8
  %17 = getelementptr inbounds nuw %"class.clang::SourceLocation", ptr %8, i32 0, i32 0
  store i32 %2, ptr %17, align 4
  %18 = getelementptr inbounds nuw { i64, i8 }, ptr %10, i32 0, i32 0
  store i64 %4, ptr %18, align 4
  %19 = getelementptr inbounds nuw { i64, i8 }, ptr %10, i32 0, i32 1
  store i8 %5, ptr %19, align 4
  call void @llvm.memcpy.p0.p0.i64(ptr align 4 %9, ptr align 4 %10, i64 12, i1 false)
  store ptr %0, ptr %11, align 8
  store ptr %1, ptr %12, align 8
  %20 = zext i1 %3 to i8
  store i8 %20, ptr %13, align 1
  %21 = load ptr, ptr %11, align 8
  %22 = getelementptr inbounds nuw %"class.(anonymous namespace)::CheckFormatHandler", ptr %21, i32 0, i32 1
  %23 = load ptr, ptr %22, align 8
  %24 = getelementptr inbounds nuw %"class.(anonymous namespace)::CheckFormatHandler", ptr %21, i32 0, i32 14
  %25 = load i8, ptr %24, align 2
  %26 = trunc i8 %25 to i1
  %27 = getelementptr inbounds nuw %"class.(anonymous namespace)::CheckFormatHandler", ptr %21, i32 0, i32 9
  %28 = getelementptr inbounds nuw %"class.(anonymous namespace)::CheckFormatHandler", ptr %21, i32 0, i32 10
  %29 = load i32, ptr %28, align 8
  %30 = zext i32 %29 to i64
  %31 = call noundef nonnull align 8 dereferenceable(8) ptr @_ZNK4llvm8ArrayRefIPKN5clang4ExprEEixEm(ptr noundef nonnull align 8 dereferenceable(16) %27, i64 noundef %30)
  %32 = load ptr, ptr %31, align 8
  call void @llvm.memcpy.p0.p0.i64(ptr align 4 %14, ptr align 4 %8, i64 4, i1 false)
  %33 = load i8, ptr %13, align 1
  %34 = trunc i8 %33 to i1
  call void @llvm.memcpy.p0.p0.i64(ptr align 4 %15, ptr align 4 %9, i64 12, i1 false)
  call void @llvm.memcpy.p0.p0.i64(ptr align 8 %16, ptr align 8 %6, i64 16, i1 false)
  %35 = getelementptr inbounds nuw %"class.clang::SourceLocation", ptr %14, i32 0, i32 0
  %36 = load i32, ptr %35, align 4
  call void @_ZN12_GLOBAL__N_118CheckFormatHandler20EmitFormatDiagnosticIN5clang15CharSourceRangeEEEvRNS2_4SemaEbPKNS2_4ExprERKNS2_17PartialDiagnosticENS2_14SourceLocationEbT_N4llvm8ArrayRefINS2_9FixItHintEEE(ptr noundef nonnull align 8 dereferenceable(17560) %23, i1 noundef zeroext %26, ptr noundef %32, ptr noundef nonnull align 8 dereferenceable(20) %1, i32 %36, i1 noundef zeroext %34, ptr noundef byval(%"class.clang::CharSourceRange") align 8 %15, ptr noundef byval(%"class.llvm::ArrayRef.1774") align 8 %16)
  ret void
}