; Function Attrs: mustprogress nounwind uwtable
define internal fastcc void @_ZN12_GLOBAL__N_118CheckFormatHandler20EmitFormatDiagnosticIN5clang15CharSourceRangeEEEvNS2_17PartialDiagnosticENS2_14SourceLocationEbT_N4llvm8ArrayRefINS2_9FixItHintEEE(ptr nocapture noundef nonnull readonly align 8 dereferenceable(120) %0, ptr noundef %1, i32 %2, i1 noundef zeroext %3, i64 %4, i8 %5, ptr nocapture noundef readonly byval(%"class.llvm::ArrayRef.1774") align 8 %6) unnamed_addr #0 align 2 {
  %8 = alloca %"class.clang::SemaBase::SemaDiagnosticBuilder", align 8
  %9 = alloca %"class.clang::SemaBase::SemaDiagnosticBuilder", align 8
  %10 = alloca %"class.clang::SourceRange", align 8
  %11 = alloca %"class.clang::SemaBase::SemaDiagnosticBuilder", align 8
  %12 = alloca %"class.llvm::ArrayRef.1774", align 8
  %13 = alloca %"class.clang::CharSourceRange", align 8
  %14 = getelementptr inbounds nuw i8, ptr %0, i64 8
  %15 = load ptr, ptr %14, align 8
  %16 = getelementptr inbounds nuw i8, ptr %0, i64 98
  %17 = load i8, ptr %16, align 2
  %18 = trunc i8 %17 to i1
  %19 = getelementptr inbounds nuw i8, ptr %0, i64 64
  %20 = getelementptr inbounds nuw i8, ptr %0, i64 80
  %21 = load i32, ptr %20, align 8
  %22 = zext i32 %21 to i64
  %23 = load ptr, ptr %19, align 8
  %24 = getelementptr inbounds ptr, ptr %23, i64 %22
  %25 = load ptr, ptr %24, align 8
  call void @llvm.lifetime.start.p0(i64 16, ptr nonnull %12)
  call void @llvm.memcpy.p0.p0.i64(ptr noundef nonnull align 8 dereferenceable(16) %12, ptr noundef nonnull align 8 dereferenceable(16) %6, i64 16, i1 false)
  call void @llvm.lifetime.start.p0(i64 12, ptr nonnull %13)
  call void @llvm.lifetime.start.p0(i64 96, ptr nonnull %8)
  call void @llvm.lifetime.start.p0(i64 96, ptr nonnull %9)
  call void @llvm.lifetime.start.p0(i64 8, ptr nonnull %10)
  call void @llvm.lifetime.start.p0(i64 96, ptr nonnull %11)
  store i64 %4, ptr %13, align 8
  %.sroa.2.0..sroa_idx = getelementptr inbounds i8, ptr %13, i64 8
  store i8 %5, ptr %.sroa.2.0..sroa_idx, align 8
  %26 = getelementptr inbounds i8, ptr %15, i64 8
  br i1 %18, label %27, label %28

27:                                               ; preds = %7
  call void @_ZN5clang8SemaBase4DiagENS_14SourceLocationERKNS_17PartialDiagnosticEb(ptr dead_on_unwind nonnull writable sret(%"class.clang::SemaBase::SemaDiagnosticBuilder") align 8 %8, ptr noundef nonnull align 8 dereferenceable(8) %26, i32 %2, ptr noundef nonnull align 8 dereferenceable(20) %1, i1 noundef zeroext false) #25
  br label %_ZN12_GLOBAL__N_118CheckFormatHandler20EmitFormatDiagnosticIN5clang15CharSourceRangeEEEvRNS2_4SemaEbPKNS2_4ExprERKNS2_17PartialDiagnosticENS2_14SourceLocationEbT_N4llvm8ArrayRefINS2_9FixItHintEEE.exit

28:                                               ; preds = %7
  %29 = trunc i64 %4 to i32
  br i1 %3, label %30, label %.critedge.i

30:                                               ; preds = %28
  %31 = tail call i32 @_ZNK5clang4Expr10getExprLocEv(ptr noundef nonnull align 8 dereferenceable(16) %25) #26
  br label %.critedge.i

.critedge.i:                                      ; preds = %28, %30
  %.sink = phi i32 [ %31, %30 ], [ %2, %28 ]
  %.sroa.0.0.i = phi i32 [ %2, %30 ], [ %29, %28 ]
  call void @_ZN5clang8SemaBase4DiagENS_14SourceLocationERKNS_17PartialDiagnosticEb(ptr dead_on_unwind nonnull writable sret(%"class.clang::SemaBase::SemaDiagnosticBuilder") align 8 %9, ptr noundef nonnull align 8 dereferenceable(8) %26, i32 %.sink, ptr noundef nonnull align 8 dereferenceable(20) %1, i1 noundef zeroext false) #25
  %32 = call i64 @_ZNK5clang4Stmt14getSourceRangeEv(ptr noundef nonnull align 8 dereferenceable(8) %25) #26
  store i64 %32, ptr %10, align 8
  %33 = call noundef nonnull align 8 dereferenceable(96) ptr @_ZNK5clang8SemaBase21SemaDiagnosticBuilderlsINS_11SourceRangeEvEERKS1_OT_(ptr noundef nonnull align 8 dereferenceable(96) %9, ptr noundef nonnull align 4 dereferenceable(8) %10)
  call void @_ZN5clang8SemaBase21SemaDiagnosticBuilderD1Ev(ptr noundef nonnull align 8 dereferenceable(96) %9) #25
  call void @_ZN5clang8SemaBase4DiagENS_14SourceLocationEjb(ptr dead_on_unwind nonnull writable sret(%"class.clang::SemaBase::SemaDiagnosticBuilder") align 8 %11, ptr noundef nonnull align 8 dereferenceable(8) %26, i32 %.sroa.0.0.i, i32 noundef 5604, i1 noundef zeroext false) #25
  br label %_ZN12_GLOBAL__N_118CheckFormatHandler20EmitFormatDiagnosticIN5clang15CharSourceRangeEEEvRNS2_4SemaEbPKNS2_4ExprERKNS2_17PartialDiagnosticENS2_14SourceLocationEbT_N4llvm8ArrayRefINS2_9FixItHintEEE.exit

_ZN12_GLOBAL__N_118CheckFormatHandler20EmitFormatDiagnosticIN5clang15CharSourceRangeEEEvRNS2_4SemaEbPKNS2_4ExprERKNS2_17PartialDiagnosticENS2_14SourceLocationEbT_N4llvm8ArrayRefINS2_9FixItHintEEE.exit: ; preds = %27, %.critedge.i
  %.sink19.i = phi ptr [ %11, %.critedge.i ], [ %8, %27 ]
  %34 = call noundef nonnull align 8 dereferenceable(96) ptr @_ZN5clanglsINS_15CharSourceRangeEEERKNS_8SemaBase21SemaDiagnosticBuilderES5_RKT_(ptr noundef nonnull align 8 dereferenceable(96) %.sink19.i, ptr noundef nonnull align 4 dereferenceable(9) %13)
  %35 = call noundef nonnull align 8 dereferenceable(96) ptr @_ZN5clanglsIN4llvm8ArrayRefINS_9FixItHintEEEEERKNS_8SemaBase21SemaDiagnosticBuilderES8_RKT_(ptr noundef nonnull align 8 dereferenceable(96) %.sink19.i, ptr noundef nonnull align 8 dereferenceable(16) %12)
  call void @_ZN5clang8SemaBase21SemaDiagnosticBuilderD1Ev(ptr noundef nonnull align 8 dereferenceable(96) %.sink19.i) #25
  call void @llvm.lifetime.end.p0(i64 12, ptr nonnull %13)
  call void @llvm.lifetime.end.p0(i64 16, ptr nonnull %12)
  call void @llvm.lifetime.end.p0(i64 96, ptr nonnull %8)
  call void @llvm.lifetime.end.p0(i64 96, ptr nonnull %9)
  call void @llvm.lifetime.end.p0(i64 8, ptr nonnull %10)
  call void @llvm.lifetime.end.p0(i64 96, ptr nonnull %11)
  ret void
}